; Function Attrs: nounwind uwtable
define range(i32 -2147483648, 1) i32 @ff_load_image(ptr noundef %0, ptr noundef %1, ptr noundef captures(none) %2, ptr noundef captures(none) %3, ptr noundef captures(none) %4, ptr noundef %5, ptr noundef %6) local_unnamed_addr #0 {
  %8 = alloca ptr, align 8
  %9 = alloca ptr, align 8
  %10 = alloca ptr, align 8
  %11 = alloca %struct.AVPacket, align 8
  %12 = alloca ptr, align 8
  call void @llvm.lifetime.start.p0(i64 8, ptr nonnull %8) #3
  store ptr null, ptr %8, align 8, !tbaa !4
  call void @llvm.lifetime.start.p0(i64 8, ptr nonnull %9) #3
  store ptr null, ptr %9, align 8, !tbaa !9
  call void @llvm.lifetime.start.p0(i64 8, ptr nonnull %10) #3
  store ptr null, ptr %10, align 8, !tbaa !11
  call void @llvm.lifetime.start.p0(i64 104, ptr nonnull %11) #3
  call void @llvm.lifetime.start.p0(i64 8, ptr nonnull %12) #3
  store ptr null, ptr %12, align 8, !tbaa !13
  %13 = tail call ptr @av_find_input_format(ptr noundef nonnull @.str) #3
  %14 = call i32 @avformat_open_input(ptr noundef nonnull %8, ptr noundef %5, ptr noundef %13, ptr noundef null) #3
  %15 = icmp slt i32 %14, 0
  br i1 %15, label %.sink.split, label %16

16:                                               ; preds = %7
  %17 = load ptr, ptr %8, align 8, !tbaa !4
  %18 = call i32 @avformat_find_stream_info(ptr noundef %17, ptr noundef null) #3
  %19 = icmp slt i32 %18, 0
  br i1 %19, label %20, label %21

20:                                               ; preds = %16
  call void (ptr, i32, ptr, ...) @av_log(ptr noundef %6, i32 noundef 16, ptr noundef nonnull @.str.2) #3
  br label %76

21:                                               ; preds = %16
  %22 = load ptr, ptr %8, align 8, !tbaa !4
  %23 = getelementptr inbounds nuw i8, ptr %22, i64 48
  %24 = load ptr, ptr %23, align 8, !tbaa !15
  %25 = load ptr, ptr %24, align 8, !tbaa !31
  %26 = getelementptr inbounds nuw i8, ptr %25, i64 16
  %27 = load ptr, ptr %26, align 8, !tbaa !33
  %28 = getelementptr inbounds nuw i8, ptr %27, i64 4
  %29 = load i32, ptr %28, align 4, !tbaa !40
  %30 = call ptr @avcodec_find_decoder(i32 noundef %29) #3
  %.not = icmp eq ptr %30, null
  br i1 %.not, label %31, label %32

31:                                               ; preds = %21
  call void (ptr, i32, ptr, ...) @av_log(ptr noundef %6, i32 noundef 16, ptr noundef nonnull @.str.3) #3
  br label %76

32:                                               ; preds = %21
  %33 = call ptr @avcodec_alloc_context3(ptr noundef nonnull %30) #3
  store ptr %33, ptr %9, align 8, !tbaa !9
  %.not51 = icmp eq ptr %33, null
  br i1 %.not51, label %34, label %35

34:                                               ; preds = %32
  call void (ptr, i32, ptr, ...) @av_log(ptr noundef %6, i32 noundef 16, ptr noundef nonnull @.str.4) #3
  br label %76

35:                                               ; preds = %32
  %36 = call i32 @avcodec_parameters_to_context(ptr noundef nonnull %33, ptr noundef nonnull %27) #3
  %37 = icmp slt i32 %36, 0
  br i1 %37, label %38, label %39

38:                                               ; preds = %35
  call void (ptr, i32, ptr, ...) @av_log(ptr noundef %6, i32 noundef 16, ptr noundef nonnull @.str.5) #3
  br label %76

39:                                               ; preds = %35
  %40 = call i32 @av_dict_set(ptr noundef nonnull %12, ptr noundef nonnull @.str.6, ptr noundef nonnull @.str.7, i32 noundef 0) #3
  %41 = call i32 @avcodec_open2(ptr noundef nonnull %33, ptr noundef nonnull %30, ptr noundef nonnull %12) #3
  %42 = icmp slt i32 %41, 0
  br i1 %42, label %43, label %44

43:                                               ; preds = %39
  call void (ptr, i32, ptr, ...) @av_log(ptr noundef %6, i32 noundef 16, ptr noundef nonnull @.str.8) #3
  br label %76

44:                                               ; preds = %39
  %45 = call ptr @av_frame_alloc() #3
  store ptr %45, ptr %10, align 8, !tbaa !11
  %.not52 = icmp eq ptr %45, null
  br i1 %.not52, label %46, label %47

46:                                               ; preds = %44
  call void (ptr, i32, ptr, ...) @av_log(ptr noundef %6, i32 noundef 16, ptr noundef nonnull @.str.9) #3
  br label %76

47:                                               ; preds = %44
  %48 = load ptr, ptr %8, align 8, !tbaa !4
  %49 = call i32 @av_read_frame(ptr noundef %48, ptr noundef nonnull %11) #3
  %50 = icmp slt i32 %49, 0
  br i1 %50, label %51, label %52

51:                                               ; preds = %47
  call void (ptr, i32, ptr, ...) @av_log(ptr noundef %6, i32 noundef 16, ptr noundef nonnull @.str.10) #3
  br label %76

52:                                               ; preds = %47
  %53 = call i32 @avcodec_send_packet(ptr noundef nonnull %33, ptr noundef nonnull %11) #3
  call void @av_packet_unref(ptr noundef nonnull %11) #3
  %54 = icmp slt i32 %53, 0
  br i1 %54, label %55, label %56

55:                                               ; preds = %52
  call void (ptr, i32, ptr, ...) @av_log(ptr noundef %6, i32 noundef 16, ptr noundef nonnull @.str.11) #3
  br label %76

56:                                               ; preds = %52
  %57 = call i32 @avcodec_receive_frame(ptr noundef nonnull %33, ptr noundef nonnull %45) #3
  %58 = icmp slt i32 %57, 0
  br i1 %58, label %59, label %60

59:                                               ; preds = %56
  call void (ptr, i32, ptr, ...) @av_log(ptr noundef %6, i32 noundef 16, ptr noundef nonnull @.str.12) #3
  br label %76

60:                                               ; preds = %56
  %61 = getelementptr inbounds nuw i8, ptr %45, i64 104
  %62 = load i32, ptr %61, align 8, !tbaa !43
  store i32 %62, ptr %2, align 4, !tbaa !48
  %63 = getelementptr inbounds nuw i8, ptr %45, i64 108
  %64 = load i32, ptr %63, align 4, !tbaa !49
  store i32 %64, ptr %3, align 4, !tbaa !48
  %65 = getelementptr inbounds nuw i8, ptr %45, i64 116
  %66 = load i32, ptr %65, align 4, !tbaa !50
  store i32 %66, ptr %4, align 4, !tbaa !48
  %67 = load i32, ptr %2, align 4, !tbaa !48
  %68 = load i32, ptr %3, align 4, !tbaa !48
  %69 = call i32 @av_image_alloc(ptr noundef %0, ptr noundef %1, i32 noundef %67, i32 noundef %68, i32 noundef %66, i32 noundef 16) #3
  %70 = icmp slt i32 %69, 0
  br i1 %70, label %76, label %71

71:                                               ; preds = %60
  %72 = getelementptr inbounds nuw i8, ptr %45, i64 64
  %73 = load i32, ptr %4, align 4, !tbaa !48
  %74 = load i32, ptr %2, align 4, !tbaa !48
  %75 = load i32, ptr %3, align 4, !tbaa !48
  call void @av_image_copy(ptr noundef %0, ptr noundef %1, ptr noundef nonnull %45, ptr noundef nonnull %72, i32 noundef %73, i32 noundef %74, i32 noundef %75) #3
  br label %76

76:                                               ; preds = %60, %71, %59, %55, %51, %46, %43, %38, %34, %31, %20
  %.0 = phi i32 [ %18, %20 ], [ %36, %38 ], [ %41, %43 ], [ %49, %51 ], [ %53, %55 ], [ %57, %59 ], [ %69, %60 ], [ 0, %71 ], [ -12, %46 ], [ -12, %34 ], [ -22, %31 ]
  call void @avcodec_free_context(ptr noundef nonnull %9) #3
  call void @avformat_close_input(ptr noundef nonnull %8) #3
  call void @av_frame_free(ptr noundef nonnull %10) #3
  call void @av_dict_free(ptr noundef nonnull %12) #3
  %77 = icmp slt i32 %.0, 0
  br i1 %77, label %.sink.split, label %78

.sink.split:                                      ; preds = %76, %7
  %.str.13.sink = phi ptr [ @.str.1, %7 ], [ @.str.13, %76 ]
  %.040.ph = phi i32 [ %14, %7 ], [ %.0, %76 ]
  call void (ptr, i32, ptr, ...) @av_log(ptr noundef %6, i32 noundef 16, ptr noundef nonnull %.str.13.sink, ptr noundef %5) #3
  br label %78

78:                                               ; preds = %.sink.split, %76
  %.040 = phi i32 [ 0, %76 ], [ %.040.ph, %.sink.split ]
  call void @llvm.lifetime.end.p0(i64 8, ptr nonnull %12) #3
  call void @llvm.lifetime.end.p0(i64 104, ptr nonnull %11) #3
  call void @llvm.lifetime.end.p0(i64 8, ptr nonnull %10) #3
  call void @llvm.lifetime.end.p0(i64 8, ptr nonnull %9) #3
  call void @llvm.lifetime.end.p0(i64 8, ptr nonnull %8) #3
  ret i32 %.040
}